target datalayout = "e-m:e-p270:32:32-p271:32:32-p272:64:64-i64:64-i128:128-f80:128-n8:16:32:64-S128"
target triple = "x86_64-pc-linux-gnu"

%struct.URLProtocol = type { ptr, ptr, ptr, ptr, ptr, ptr, ptr, ptr, ptr, ptr, ptr, ptr, ptr, ptr, ptr, ptr, i32, i32, ptr, ptr, ptr, ptr, ptr, ptr, ptr }
%struct.URLContext = type { ptr, ptr, ptr, ptr, i32, i32, i32, i32, %struct.AVIOInterruptCB, i64, ptr, ptr, i32 }
%struct.AVIOInterruptCB = type { ptr, ptr }
%struct.HTTPContext = type { ptr, ptr, [8192 x i8], ptr, ptr, i32, i32, i64, i32, i64, i64, i64, ptr, ptr, %struct.HTTPAuthState, %struct.HTTPAuthState, ptr, ptr, ptr, ptr, ptr, ptr, ptr, i32, i32, i32, i32, i32, i32, ptr, i32, i32, i32, ptr, ptr, i32, i64, i64, ptr, ptr, ptr, i32, %struct.z_stream_s, ptr, ptr, i32, ptr, i32, i32, i32, i32, i32, ptr, i32, ptr, i32, i32, i32, i32, i32, i64, ptr, ptr, i64, i32, i32, i32, i32 }
%struct.HTTPAuthState = type { i32, [200 x i8], %struct.DigestParams, i32 }
%struct.DigestParams = type { [300 x i8], [10 x i8], [30 x i8], [300 x i8], [10 x i8], i32 }
%struct.z_stream_s = type { ptr, i32, i64, ptr, i32, i64, ptr, ptr, ptr, ptr, ptr, i32, i64, i64 }

@.str = private unnamed_addr constant [5 x i8] c"http\00", align 1
@.str.1 = private unnamed_addr constant [6 x i8] c"https\00", align 1
@.str.2 = private unnamed_addr constant [62 x i8] c"Cannot reuse HTTP connection for different protocol %s vs %s\0A\00", align 1
@.str.3 = private unnamed_addr constant [65 x i8] c"Cannot reuse HTTP connection for different host: %s:%d != %s:%d\0A\00", align 1
@.str.4 = private unnamed_addr constant [21 x i8] c"Opening '%s' for %s\0A\00", align 1
@.str.5 = private unnamed_addr constant [8 x i8] c"writing\00", align 1
@.str.6 = private unnamed_addr constant [8 x i8] c"reading\00", align 1

; Function Attrs: nounwind uwtable
define i32 @ff_http_do_new_request2(ptr noundef %0, ptr noundef %1, ptr noundef %2) #0 {
  %4 = alloca i32, align 4
  %5 = alloca ptr, align 8
  %6 = alloca ptr, align 8
  %7 = alloca ptr, align 8
  %8 = alloca ptr, align 8
  %9 = alloca ptr, align 8
  %10 = alloca i32, align 4
  %11 = alloca [1024 x i8], align 16
  %12 = alloca [1024 x i8], align 16
  %13 = alloca [10 x i8], align 1
  %14 = alloca [10 x i8], align 1
  %15 = alloca i32, align 4
  %16 = alloca i32, align 4
  %17 = alloca i32, align 4
  store ptr %0, ptr %5, align 8, !tbaa !4
  store ptr %1, ptr %6, align 8, !tbaa !17
  store ptr %2, ptr %7, align 8, !tbaa !18
  call void @llvm.lifetime.start.p0(i64 8, ptr %8) #11
  %18 = load ptr, ptr %5, align 8, !tbaa !4
  %19 = getelementptr inbounds nuw %struct.URLContext, ptr %18, i32 0, i32 2
  %20 = load ptr, ptr %19, align 8, !tbaa !9
  store ptr %20, ptr %8, align 8, !tbaa !21
  call void @llvm.lifetime.start.p0(i64 8, ptr %9) #11
  store ptr null, ptr %9, align 8, !tbaa !23
  call void @llvm.lifetime.start.p0(i64 4, ptr %10) #11
  call void @llvm.lifetime.start.p0(i64 1024, ptr %11) #11
  call void @llvm.lifetime.start.p0(i64 1024, ptr %12) #11
  call void @llvm.lifetime.start.p0(i64 10, ptr %13) #11
  call void @llvm.lifetime.start.p0(i64 10, ptr %14) #11
  call void @llvm.lifetime.start.p0(i64 4, ptr %15) #11
  call void @llvm.lifetime.start.p0(i64 4, ptr %16) #11
  %21 = load ptr, ptr %5, align 8, !tbaa !4
  %22 = getelementptr inbounds nuw %struct.URLContext, ptr %21, i32 0, i32 1
  %23 = load ptr, ptr %22, align 8, !tbaa !25
  %24 = icmp ne ptr %23, null
  br i1 %24, label %25, label %41

25:                                               ; preds = %3
  %26 = load ptr, ptr %5, align 8, !tbaa !4
  %27 = getelementptr inbounds nuw %struct.URLContext, ptr %26, i32 0, i32 1
  %28 = load ptr, ptr %27, align 8, !tbaa !25
  %29 = getelementptr inbounds nuw %struct.URLProtocol, ptr %28, i32 0, i32 0
  %30 = load ptr, ptr %29, align 8, !tbaa !26
  %31 = call i32 @strcmp(ptr noundef %30, ptr noundef @.str) #12
  %32 = icmp ne i32 %31, 0
  br i1 %32, label %33, label %42

33:                                               ; preds = %25
  %34 = load ptr, ptr %5, align 8, !tbaa !4
  %35 = getelementptr inbounds nuw %struct.URLContext, ptr %34, i32 0, i32 1
  %36 = load ptr, ptr %35, align 8, !tbaa !25
  %37 = getelementptr inbounds nuw %struct.URLProtocol, ptr %36, i32 0, i32 0
  %38 = load ptr, ptr %37, align 8, !tbaa !26
  %39 = call i32 @strcmp(ptr noundef %38, ptr noundef @.str.1) #12
  %40 = icmp ne i32 %39, 0
  br i1 %40, label %41, label %42

41:                                               ; preds = %33, %3
  store i32 -22, ptr %4, align 4
  store i32 1, ptr %17, align 4
  br label %149

42:                                               ; preds = %33, %25
  %43 = getelementptr inbounds [10 x i8], ptr %13, i64 0, i64 0
  %44 = getelementptr inbounds [1024 x i8], ptr %11, i64 0, i64 0
  %45 = load ptr, ptr %8, align 8, !tbaa !21
  %46 = getelementptr inbounds nuw %struct.HTTPContext, ptr %45, i32 0, i32 13
  %47 = load ptr, ptr %46, align 8, !tbaa !28
  call void @av_url_split(ptr noundef %43, i32 noundef 10, ptr noundef null, i32 noundef 0, ptr noundef %44, i32 noundef 1024, ptr noundef %15, ptr noundef null, i32 noundef 0, ptr noundef %47)
  %48 = getelementptr inbounds [10 x i8], ptr %14, i64 0, i64 0
  %49 = getelementptr inbounds [1024 x i8], ptr %12, i64 0, i64 0
  %50 = load ptr, ptr %6, align 8, !tbaa !17
  call void @av_url_split(ptr noundef %48, i32 noundef 10, ptr noundef null, i32 noundef 0, ptr noundef %49, i32 noundef 1024, ptr noundef %16, ptr noundef null, i32 noundef 0, ptr noundef %50)
  %51 = getelementptr inbounds [10 x i8], ptr %13, i64 0, i64 0
  %52 = getelementptr inbounds [10 x i8], ptr %14, i64 0, i64 0
  %53 = call i32 @strcmp(ptr noundef %51, ptr noundef %52) #12
  %54 = icmp ne i32 %53, 0
  br i1 %54, label %55, label %59

55:                                               ; preds = %42
  %56 = load ptr, ptr %5, align 8, !tbaa !4
  %57 = getelementptr inbounds [10 x i8], ptr %13, i64 0, i64 0
  %58 = getelementptr inbounds [10 x i8], ptr %14, i64 0, i64 0
  call void (ptr, i32, ptr, ...) @av_log(ptr noundef %56, i32 noundef 32, ptr noundef @.str.2, ptr noundef %57, ptr noundef %58)
  store i32 -22, ptr %4, align 4
  store i32 1, ptr %17, align 4
  br label %149

59:                                               ; preds = %42
  %60 = load i32, ptr %15, align 4, !tbaa !34
  %61 = load i32, ptr %16, align 4, !tbaa !34
  %62 = icmp ne i32 %60, %61
  br i1 %62, label %68, label %63

63:                                               ; preds = %59
  %64 = getelementptr inbounds [1024 x i8], ptr %11, i64 0, i64 0
  %65 = getelementptr inbounds [1024 x i8], ptr %12, i64 0, i64 0
  %66 = call i32 @strncmp(ptr noundef %64, ptr noundef %65, i64 noundef 1024) #12
  %67 = icmp ne i32 %66, 0
  br i1 %67, label %68, label %74

68:                                               ; preds = %63, %59
  %69 = load ptr, ptr %5, align 8, !tbaa !4
  %70 = getelementptr inbounds [1024 x i8], ptr %11, i64 0, i64 0
  %71 = load i32, ptr %15, align 4, !tbaa !34
  %72 = getelementptr inbounds [1024 x i8], ptr %12, i64 0, i64 0
  %73 = load i32, ptr %16, align 4, !tbaa !34
  call void (ptr, i32, ptr, ...) @av_log(ptr noundef %69, i32 noundef 32, ptr noundef @.str.3, ptr noundef %70, i32 noundef %71, ptr noundef %72, i32 noundef %73)
  store i32 -22, ptr %4, align 4
  store i32 1, ptr %17, align 4
  br label %149

74:                                               ; preds = %63
  %75 = load ptr, ptr %8, align 8, !tbaa !21
  %76 = getelementptr inbounds nuw %struct.HTTPContext, ptr %75, i32 0, i32 26
  %77 = load i32, ptr %76, align 4, !tbaa !35
  %78 = icmp ne i32 %77, 0
  br i1 %78, label %90, label %79

79:                                               ; preds = %74
  %80 = load ptr, ptr %5, align 8, !tbaa !4
  %81 = load ptr, ptr %5, align 8, !tbaa !4
  %82 = getelementptr inbounds nuw %struct.URLContext, ptr %81, i32 0, i32 4
  %83 = load i32, ptr %82, align 8, !tbaa !36
  %84 = call i32 @http_shutdown(ptr noundef %80, i32 noundef %83)
  store i32 %84, ptr %10, align 4, !tbaa !34
  %85 = load i32, ptr %10, align 4, !tbaa !34
  %86 = icmp slt i32 %85, 0
  br i1 %86, label %87, label %89

87:                                               ; preds = %79
  %88 = load i32, ptr %10, align 4, !tbaa !34
  store i32 %88, ptr %4, align 4
  store i32 1, ptr %17, align 4
  br label %149

89:                                               ; preds = %79
  br label %90

90:                                               ; preds = %89, %74
  %91 = load ptr, ptr %8, align 8, !tbaa !21
  %92 = getelementptr inbounds nuw %struct.HTTPContext, ptr %91, i32 0, i32 23
  %93 = load i32, ptr %92, align 8, !tbaa !37
  %94 = icmp ne i32 %93, 0
  br i1 %94, label %95, label %96

95:                                               ; preds = %90
  store i32 -541478725, ptr %4, align 4
  store i32 1, ptr %17, align 4
  br label %149

96:                                               ; preds = %90
  %97 = load ptr, ptr %8, align 8, !tbaa !21
  %98 = getelementptr inbounds nuw %struct.HTTPContext, ptr %97, i32 0, i32 26
  store i32 0, ptr %98, align 4, !tbaa !35
  %99 = load ptr, ptr %8, align 8, !tbaa !21
  %100 = getelementptr inbounds nuw %struct.HTTPContext, ptr %99, i32 0, i32 8
  store i32 0, ptr %100, align 8, !tbaa !38
  %101 = load ptr, ptr %8, align 8, !tbaa !21
  %102 = getelementptr inbounds nuw %struct.HTTPContext, ptr %101, i32 0, i32 9
  store i64 0, ptr %102, align 8, !tbaa !39
  %103 = load ptr, ptr %8, align 8, !tbaa !21
  %104 = getelementptr inbounds nuw %struct.HTTPContext, ptr %103, i32 0, i32 36
  store i64 0, ptr %104, align 8, !tbaa !40
  %105 = load ptr, ptr %8, align 8, !tbaa !21
  %106 = getelementptr inbounds nuw %struct.HTTPContext, ptr %105, i32 0, i32 13
  %107 = load ptr, ptr %106, align 8, !tbaa !28
  call void @av_free(ptr noundef %107)
  %108 = load ptr, ptr %6, align 8, !tbaa !17
  %109 = call noalias ptr @av_strdup(ptr noundef %108)
  %110 = load ptr, ptr %8, align 8, !tbaa !21
  %111 = getelementptr inbounds nuw %struct.HTTPContext, ptr %110, i32 0, i32 13
  store ptr %109, ptr %111, align 8, !tbaa !28
  %112 = load ptr, ptr %8, align 8, !tbaa !21
  %113 = getelementptr inbounds nuw %struct.HTTPContext, ptr %112, i32 0, i32 13
  %114 = load ptr, ptr %113, align 8, !tbaa !28
  %115 = icmp ne ptr %114, null
  br i1 %115, label %117, label %116

116:                                              ; preds = %96
  store i32 -12, ptr %4, align 4
  store i32 1, ptr %17, align 4
  br label %149

117:                                              ; preds = %96
  %118 = load ptr, ptr %8, align 8, !tbaa !21
  %119 = getelementptr inbounds nuw %struct.HTTPContext, ptr %118, i32 0, i32 12
  %120 = load ptr, ptr %119, align 8, !tbaa !41
  call void @av_free(ptr noundef %120)
  %121 = load ptr, ptr %6, align 8, !tbaa !17
  %122 = call noalias ptr @av_strdup(ptr noundef %121)
  %123 = load ptr, ptr %8, align 8, !tbaa !21
  %124 = getelementptr inbounds nuw %struct.HTTPContext, ptr %123, i32 0, i32 12
  store ptr %122, ptr %124, align 8, !tbaa !41
  %125 = load ptr, ptr %8, align 8, !tbaa !21
  %126 = getelementptr inbounds nuw %struct.HTTPContext, ptr %125, i32 0, i32 12
  %127 = load ptr, ptr %126, align 8, !tbaa !41
  %128 = icmp ne ptr %127, null
  br i1 %128, label %130, label %129

129:                                              ; preds = %117
  store i32 -12, ptr %4, align 4
  store i32 1, ptr %17, align 4
  br label %149

130:                                              ; preds = %117
  %131 = load ptr, ptr %8, align 8, !tbaa !21
  %132 = load ptr, ptr %7, align 8, !tbaa !18
  %133 = call i32 @av_opt_set_dict(ptr noundef %131, ptr noundef %132)
  store i32 %133, ptr %10, align 4, !tbaa !34
  %134 = icmp slt i32 %133, 0
  br i1 %134, label %135, label %137

135:                                              ; preds = %130
  %136 = load i32, ptr %10, align 4, !tbaa !34
  store i32 %136, ptr %4, align 4
  store i32 1, ptr %17, align 4
  br label %149

137:                                              ; preds = %130
  %138 = load ptr, ptr %8, align 8, !tbaa !21
  %139 = load ptr, ptr %6, align 8, !tbaa !17
  %140 = load ptr, ptr %5, align 8, !tbaa !4
  %141 = getelementptr inbounds nuw %struct.URLContext, ptr %140, i32 0, i32 4
  %142 = load i32, ptr %141, align 8, !tbaa !36
  %143 = and i32 %142, 2
  %144 = icmp ne i32 %143, 0
  %145 = select i1 %144, ptr @.str.5, ptr @.str.6
  call void (ptr, i32, ptr, ...) @av_log(ptr noundef %138, i32 noundef 32, ptr noundef @.str.4, ptr noundef %139, ptr noundef %145)
  %146 = load ptr, ptr %5, align 8, !tbaa !4
  %147 = call i32 @http_open_cnx(ptr noundef %146, ptr noundef %9)
  store i32 %147, ptr %10, align 4, !tbaa !34
  call void @av_dict_free(ptr noundef %9)
  %148 = load i32, ptr %10, align 4, !tbaa !34
  store i32 %148, ptr %4, align 4
  store i32 1, ptr %17, align 4
  br label %149

149:                                              ; preds = %137, %135, %129, %116, %95, %87, %68, %55, %41
  call void @llvm.lifetime.end.p0(i64 4, ptr %16) #11
  call void @llvm.lifetime.end.p0(i64 4, ptr %15) #11
  call void @llvm.lifetime.end.p0(i64 10, ptr %14) #11
  call void @llvm.lifetime.end.p0(i64 10, ptr %13) #11
  call void @llvm.lifetime.end.p0(i64 1024, ptr %12) #11
  call void @llvm.lifetime.end.p0(i64 1024, ptr %11) #11
  call void @llvm.lifetime.end.p0(i64 4, ptr %10) #11
  call void @llvm.lifetime.end.p0(i64 8, ptr %9) #11
  call void @llvm.lifetime.end.p0(i64 8, ptr %8) #11
  %150 = load i32, ptr %4, align 4
  ret i32 %150
}