; Function Attrs: nounwind uwtable
define range(i32 -2147483648, 1) i32 @ff_http_do_new_request2(ptr noundef %0, ptr noundef %1, ptr noundef %2) local_unnamed_addr #2 {
  %4 = alloca ptr, align 8
  %5 = alloca [1024 x i8], align 16
  %6 = alloca [1024 x i8], align 16
  %7 = alloca [10 x i8], align 1
  %8 = alloca [10 x i8], align 1
  %9 = alloca i32, align 4
  %10 = alloca i32, align 4
  %11 = getelementptr inbounds nuw i8, ptr %0, i64 16
  %12 = load ptr, ptr %11, align 8, !tbaa !4
  call void @llvm.lifetime.start.p0(i64 8, ptr nonnull %4) #15
  store ptr null, ptr %4, align 8, !tbaa !15
  call void @llvm.lifetime.start.p0(i64 1024, ptr nonnull %5) #15
  call void @llvm.lifetime.start.p0(i64 1024, ptr nonnull %6) #15
  call void @llvm.lifetime.start.p0(i64 10, ptr nonnull %7) #15
  call void @llvm.lifetime.start.p0(i64 10, ptr nonnull %8) #15
  call void @llvm.lifetime.start.p0(i64 4, ptr nonnull %9) #15
  call void @llvm.lifetime.start.p0(i64 4, ptr nonnull %10) #15
  %13 = getelementptr inbounds nuw i8, ptr %0, i64 8
  %14 = load ptr, ptr %13, align 8, !tbaa !17
  %.not = icmp eq ptr %14, null
  br i1 %.not, label %61, label %15

15:                                               ; preds = %3
  %16 = load ptr, ptr %14, align 8, !tbaa !18
  %17 = tail call i32 @strcmp(ptr noundef nonnull dereferenceable(1) %16, ptr noundef nonnull dereferenceable(5) @.str) #16
  %.not37 = icmp eq i32 %17, 0
  br i1 %.not37, label %20, label %18

18:                                               ; preds = %15
  %19 = tail call i32 @strcmp(ptr noundef nonnull dereferenceable(1) %16, ptr noundef nonnull dereferenceable(6) @.str.1) #16
  %.not38 = icmp eq i32 %19, 0
  br i1 %.not38, label %20, label %61

20:                                               ; preds = %18, %15
  %21 = getelementptr inbounds nuw i8, ptr %12, i64 8280
  %22 = load ptr, ptr %21, align 8, !tbaa !20
  call void @av_url_split(ptr noundef nonnull %7, i32 noundef 10, ptr noundef null, i32 noundef 0, ptr noundef nonnull %5, i32 noundef 1024, ptr noundef nonnull %9, ptr noundef null, i32 noundef 0, ptr noundef %22) #15
  call void @av_url_split(ptr noundef nonnull %8, i32 noundef 10, ptr noundef null, i32 noundef 0, ptr noundef nonnull %6, i32 noundef 1024, ptr noundef nonnull %10, ptr noundef null, i32 noundef 0, ptr noundef %1) #15
  %23 = call i32 @strcmp(ptr noundef nonnull dereferenceable(1) %7, ptr noundef nonnull dereferenceable(1) %8) #16
  %.not39 = icmp eq i32 %23, 0
  br i1 %.not39, label %25, label %24

24:                                               ; preds = %20
  call void (ptr, i32, ptr, ...) @av_log(ptr noundef nonnull %0, i32 noundef 32, ptr noundef nonnull @.str.2, ptr noundef nonnull %7, ptr noundef nonnull %8) #15
  br label %61

25:                                               ; preds = %20
  %26 = load i32, ptr %9, align 4, !tbaa !27
  %27 = load i32, ptr %10, align 4, !tbaa !27
  %.not40 = icmp eq i32 %26, %27
  br i1 %.not40, label %28, label %30

28:                                               ; preds = %25
  %29 = call i32 @strncmp(ptr noundef nonnull dereferenceable(1) %5, ptr noundef nonnull dereferenceable(1) %6, i64 noundef 1024) #16
  %.not41 = icmp eq i32 %29, 0
  br i1 %.not41, label %31, label %30

30:                                               ; preds = %28, %25
  call void (ptr, i32, ptr, ...) @av_log(ptr noundef nonnull %0, i32 noundef 32, ptr noundef nonnull @.str.3, ptr noundef nonnull %5, i32 noundef %26, ptr noundef nonnull %6, i32 noundef %27) #15
  br label %61

31:                                               ; preds = %28
  %32 = getelementptr inbounds nuw i8, ptr %12, i64 10084
  %33 = load i32, ptr %32, align 4, !tbaa !28
  %.not42 = icmp eq i32 %33, 0
  br i1 %.not42, label %34, label %39

34:                                               ; preds = %31
  %35 = getelementptr inbounds nuw i8, ptr %0, i64 32
  %36 = load i32, ptr %35, align 8, !tbaa !29
  %37 = call i32 @http_shutdown(ptr noundef nonnull %0, i32 noundef %36)
  %38 = icmp slt i32 %37, 0
  br i1 %38, label %61, label %39

39:                                               ; preds = %34, %31
  %40 = getelementptr inbounds nuw i8, ptr %12, i64 10072
  %41 = load i32, ptr %40, align 8, !tbaa !30
  %.not43 = icmp eq i32 %41, 0
  br i1 %.not43, label %42, label %61

42:                                               ; preds = %39
  store i32 0, ptr %32, align 4, !tbaa !28
  %43 = getelementptr inbounds nuw i8, ptr %12, i64 8240
  store i32 0, ptr %43, align 8, !tbaa !31
  %44 = getelementptr inbounds nuw i8, ptr %12, i64 8248
  store i64 0, ptr %44, align 8, !tbaa !32
  %45 = getelementptr inbounds nuw i8, ptr %12, i64 10144
  store i64 0, ptr %45, align 8, !tbaa !33
  %46 = load ptr, ptr %21, align 8, !tbaa !20
  call void @av_free(ptr noundef %46) #15
  %47 = call noalias ptr @av_strdup(ptr noundef %1) #15
  store ptr %47, ptr %21, align 8, !tbaa !20
  %.not44 = icmp eq ptr %47, null
  br i1 %.not44, label %61, label %48

48:                                               ; preds = %42
  %49 = getelementptr inbounds nuw i8, ptr %12, i64 8272
  %50 = load ptr, ptr %49, align 8, !tbaa !34
  call void @av_free(ptr noundef %50) #15
  %51 = call noalias ptr @av_strdup(ptr noundef %1) #15
  store ptr %51, ptr %49, align 8, !tbaa !34
  %.not45 = icmp eq ptr %51, null
  br i1 %.not45, label %61, label %52

52:                                               ; preds = %48
  %53 = call i32 @av_opt_set_dict(ptr noundef nonnull %12, ptr noundef %2) #15
  %54 = icmp slt i32 %53, 0
  br i1 %54, label %61, label %55

55:                                               ; preds = %52
  %56 = getelementptr inbounds nuw i8, ptr %0, i64 32
  %57 = load i32, ptr %56, align 8, !tbaa !29
  %58 = and i32 %57, 2
  %.not46 = icmp eq i32 %58, 0
  %59 = select i1 %.not46, ptr @.str.6, ptr @.str.5
  call void (ptr, i32, ptr, ...) @av_log(ptr noundef nonnull %12, i32 noundef 32, ptr noundef nonnull @.str.4, ptr noundef %1, ptr noundef nonnull %59) #15
  %60 = call fastcc i32 @http_open_cnx(ptr noundef nonnull %0, ptr noundef nonnull %4)
  call void @av_dict_free(ptr noundef nonnull %4) #15
  br label %61

61:                                               ; preds = %52, %48, %42, %39, %34, %3, %18, %55, %30, %24
  %.0 = phi i32 [ -22, %24 ], [ -22, %30 ], [ %60, %55 ], [ -22, %18 ], [ -22, %3 ], [ %37, %34 ], [ -541478725, %39 ], [ -12, %42 ], [ -12, %48 ], [ %53, %52 ]
  call void @llvm.lifetime.end.p0(i64 4, ptr nonnull %10) #15
  call void @llvm.lifetime.end.p0(i64 4, ptr nonnull %9) #15
  call void @llvm.lifetime.end.p0(i64 10, ptr nonnull %8) #15
  call void @llvm.lifetime.end.p0(i64 10, ptr nonnull %7) #15
  call void @llvm.lifetime.end.p0(i64 1024, ptr nonnull %6) #15
  call void @llvm.lifetime.end.p0(i64 1024, ptr nonnull %5) #15
  call void @llvm.lifetime.end.p0(i64 8, ptr nonnull %4) #15
  ret i32 %.0
}